target datalayout = "e-m:e-p270:32:32-p271:32:32-p272:64:64-i64:64-i128:128-f80:128-n8:16:32:64-S128"
target triple = "x86_64-pc-linux-gnu"

%"class.casadi::SharedObject" = type { ptr }
%"class.casadi::Low" = type { %"class.casadi::MXNode", i64 }
%"class.casadi::MXNode" = type { %"class.casadi::SharedObjectInternal", i64, %"class.std::vector", %"class.casadi::Sparsity" }
%"class.casadi::SharedObjectInternal" = type { ptr, i64, ptr }
%"class.std::vector" = type { %"struct.std::_Vector_base" }
%"struct.std::_Vector_base" = type { %"struct.std::_Vector_base<casadi::MX, std::allocator<casadi::MX>>::_Vector_impl" }
%"struct.std::_Vector_base<casadi::MX, std::allocator<casadi::MX>>::_Vector_impl" = type { %"struct.std::_Vector_base<casadi::MX, std::allocator<casadi::MX>>::_Vector_impl_data" }
%"struct.std::_Vector_base<casadi::MX, std::allocator<casadi::MX>>::_Vector_impl_data" = type { ptr, ptr, ptr }
%"class.casadi::Sparsity" = type { %"class.casadi::SharedObject" }
%"class.casadi::MX" = type { %"class.casadi::SharedObject" }

@.str.39 = private unnamed_addr constant [74 x i8] c"vector::_M_range_check: __n (which is %zu) >= this->size() (which is %zu)\00", align 1

; Function Attrs: mustprogress nounwind uwtable
define linkonce_odr hidden noundef i64 @_ZNKSt6vectorIN6casadi2MXESaIS1_EE4sizeEv(ptr noundef nonnull align 8 dereferenceable(24) %0) #5 comdat align 2 {
  %2 = alloca ptr, align 8
  store ptr %0, ptr %2, align 8
  %3 = load ptr, ptr %2, align 8
  %4 = getelementptr inbounds %"struct.std::_Vector_base", ptr %3, i32 0, i32 0
  %5 = getelementptr inbounds %"struct.std::_Vector_base<casadi::MX, std::allocator<casadi::MX>>::_Vector_impl_data", ptr %4, i32 0, i32 1
  %6 = load ptr, ptr %5, align 8
  %7 = getelementptr inbounds %"struct.std::_Vector_base", ptr %3, i32 0, i32 0
  %8 = getelementptr inbounds %"struct.std::_Vector_base<casadi::MX, std::allocator<casadi::MX>>::_Vector_impl_data", ptr %7, i32 0, i32 0
  %9 = load ptr, ptr %8, align 8
  %10 = ptrtoint ptr %6 to i64
  %11 = ptrtoint ptr %9 to i64
  %12 = sub i64 %10, %11
  %13 = sdiv exact i64 %12, 8
  ret i64 %13
}

; Function Attrs: mustprogress nounwind uwtable
define linkonce_odr hidden noundef nonnull align 8 dereferenceable(8) ptr @_ZNK6casadi17SparsityInterfaceINS_2MXEE4selfEv(ptr noundef nonnull align 1 dereferenceable(1) %0) #5 comdat align 2 {
  %2 = alloca ptr, align 8
  store ptr %0, ptr %2, align 8
  %3 = load ptr, ptr %2, align 8
  ret ptr %3
}

; Function Attrs: mustprogress nounwind uwtable
define linkonce_odr hidden noundef nonnull align 8 dereferenceable(8) ptr @_ZNKSt6vectorIN6casadi2MXESaIS1_EEixEm(ptr noundef nonnull align 8 dereferenceable(24) %0, i64 noundef %1) #5 comdat align 2 {
  %3 = alloca ptr, align 8
  %4 = alloca i64, align 8
  store ptr %0, ptr %3, align 8
  store i64 %1, ptr %4, align 8
  %5 = load ptr, ptr %3, align 8
  %6 = getelementptr inbounds %"struct.std::_Vector_base", ptr %5, i32 0, i32 0
  %7 = getelementptr inbounds %"struct.std::_Vector_base<casadi::MX, std::allocator<casadi::MX>>::_Vector_impl_data", ptr %6, i32 0, i32 0
  %8 = load ptr, ptr %7, align 8
  %9 = load i64, ptr %4, align 8
  %10 = getelementptr inbounds %"class.casadi::MX", ptr %8, i64 %9
  ret ptr %10
}

; Function Attrs: mustprogress uwtable
define linkonce_odr hidden void @_ZNKSt6vectorIN6casadi2MXESaIS1_EE14_M_range_checkEm(ptr noundef nonnull align 8 dereferenceable(24) %0, i64 noundef %1) #4 comdat align 2 {
  %3 = alloca ptr, align 8
  %4 = alloca i64, align 8
  store ptr %0, ptr %3, align 8
  store i64 %1, ptr %4, align 8
  %5 = load ptr, ptr %3, align 8
  %6 = load i64, ptr %4, align 8
  %7 = call noundef i64 @_ZNKSt6vectorIN6casadi2MXESaIS1_EE4sizeEv(ptr noundef nonnull align 8 dereferenceable(24) %5) #3
  %8 = icmp uge i64 %6, %7
  br i1 %8, label %9, label %12

9:                                                ; preds = %2
  %10 = load i64, ptr %4, align 8
  %11 = call noundef i64 @_ZNKSt6vectorIN6casadi2MXESaIS1_EE4sizeEv(ptr noundef nonnull align 8 dereferenceable(24) %5) #3
  call void (ptr, ...) @_ZSt24__throw_out_of_range_fmtPKcz(ptr noundef @.str.39, i64 noundef %10, i64 noundef %11) #11
  unreachable

12:                                               ; preds = %2
  ret void
}

; Function Attrs: mustprogress uwtable
define linkonce_odr hidden noundef nonnull align 8 dereferenceable(8) ptr @_ZNK6casadi13GenericMatrixINS_2MXEE8sparsityEv(ptr noundef nonnull align 1 dereferenceable(1) %0) #4 comdat align 2 {
  %2 = alloca ptr, align 8
  store ptr %0, ptr %2, align 8
  %3 = load ptr, ptr %2, align 8
  %4 = call noundef nonnull align 8 dereferenceable(8) ptr @_ZNK6casadi17SparsityInterfaceINS_2MXEE4selfEv(ptr noundef nonnull align 1 dereferenceable(1) %3)
  %5 = call noundef nonnull align 8 dereferenceable(8) ptr @_ZNK6casadi2MX8sparsityEv(ptr noundef nonnull align 8 dereferenceable(8) %4)
  ret ptr %5
}

; Function Attrs: mustprogress uwtable
define linkonce_odr hidden noundef nonnull align 8 dereferenceable(8) ptr @_ZNKSt6vectorIN6casadi2MXESaIS1_EE2atEm(ptr noundef nonnull align 8 dereferenceable(24) %0, i64 noundef %1) #4 comdat align 2 {
  %3 = alloca ptr, align 8
  %4 = alloca i64, align 8
  store ptr %0, ptr %3, align 8
  store i64 %1, ptr %4, align 8
  %5 = load ptr, ptr %3, align 8
  %6 = load i64, ptr %4, align 8
  call void @_ZNKSt6vectorIN6casadi2MXESaIS1_EE14_M_range_checkEm(ptr noundef nonnull align 8 dereferenceable(24) %5, i64 noundef %6)
  %7 = load i64, ptr %4, align 8
  %8 = call noundef nonnull align 8 dereferenceable(8) ptr @_ZNKSt6vectorIN6casadi2MXESaIS1_EEixEm(ptr noundef nonnull align 8 dereferenceable(24) %5, i64 noundef %7) #3
  ret ptr %8
}

; Function Attrs: mustprogress nounwind uwtable
define linkonce_odr hidden noundef i64 @_ZN6casadi10casadi_lowIdEExT_PKS1_xx(double noundef %0, ptr noundef %1, i64 noundef %2, i64 noundef %3) #5 comdat {
  %5 = alloca i64, align 8
  %6 = alloca double, align 8
  %7 = alloca ptr, align 8
  %8 = alloca i64, align 8
  %9 = alloca i64, align 8
  %10 = alloca double, align 8
  %11 = alloca double, align 8
  %12 = alloca i64, align 8
  %13 = alloca i64, align 8
  %14 = alloca i64, align 8
  %15 = alloca i64, align 8
  %16 = alloca i64, align 8
  store double %0, ptr %6, align 8
  store ptr %1, ptr %7, align 8
  store i64 %2, ptr %8, align 8
  store i64 %3, ptr %9, align 8
  %17 = load i64, ptr %9, align 8
  switch i64 %17, label %104 [
    i64 1, label %18
    i64 2, label %52
  ]

18:                                               ; preds = %4
  %19 = load ptr, ptr %7, align 8
  %20 = getelementptr inbounds double, ptr %19, i64 0
  %21 = load double, ptr %20, align 8
  store double %21, ptr %10, align 8
  %22 = load ptr, ptr %7, align 8
  %23 = load i64, ptr %8, align 8
  %24 = sub nsw i64 %23, 1
  %25 = getelementptr inbounds double, ptr %22, i64 %24
  %26 = load double, ptr %25, align 8
  %27 = load double, ptr %10, align 8
  %28 = fsub double %26, %27
  store double %28, ptr %11, align 8
  %29 = load double, ptr %6, align 8
  %30 = load double, ptr %10, align 8
  %31 = fsub double %29, %30
  %32 = load i64, ptr %8, align 8
  %33 = sub nsw i64 %32, 1
  %34 = sitofp i64 %33 to double
  %35 = fmul double %31, %34
  %36 = load double, ptr %11, align 8
  %37 = fdiv double %35, %36
  %38 = fptosi double %37 to i64
  store i64 %38, ptr %12, align 8
  %39 = load i64, ptr %12, align 8
  %40 = icmp slt i64 %39, 0
  br i1 %40, label %41, label %42

41:                                               ; preds = %18
  store i64 0, ptr %12, align 8
  br label %42

42:                                               ; preds = %41, %18
  %43 = load i64, ptr %12, align 8
  %44 = load i64, ptr %8, align 8
  %45 = sub nsw i64 %44, 2
  %46 = icmp sgt i64 %43, %45
  br i1 %46, label %47, label %50

47:                                               ; preds = %42
  %48 = load i64, ptr %8, align 8
  %49 = sub nsw i64 %48, 2
  store i64 %49, ptr %12, align 8
  br label %50

50:                                               ; preds = %47, %42
  %51 = load i64, ptr %12, align 8
  store i64 %51, ptr %5, align 8
  br label %125

52:                                               ; preds = %4
  %53 = load i64, ptr %8, align 8
  %54 = icmp slt i64 %53, 2
  br i1 %54, label %61, label %55

55:                                               ; preds = %52
  %56 = load double, ptr %6, align 8
  %57 = load ptr, ptr %7, align 8
  %58 = getelementptr inbounds double, ptr %57, i64 1
  %59 = load double, ptr %58, align 8
  %60 = fcmp olt double %56, %59
  br i1 %60, label %61, label %62

61:                                               ; preds = %55, %52
  store i64 0, ptr %5, align 8
  br label %125

62:                                               ; preds = %55
  %63 = load double, ptr %6, align 8
  %64 = load ptr, ptr %7, align 8
  %65 = load i64, ptr %8, align 8
  %66 = sub nsw i64 %65, 1
  %67 = getelementptr inbounds double, ptr %64, i64 %66
  %68 = load double, ptr %67, align 8
  %69 = fcmp ogt double %63, %68
  br i1 %69, label %70, label %73

70:                                               ; preds = %62
  %71 = load i64, ptr %8, align 8
  %72 = sub nsw i64 %71, 2
  store i64 %72, ptr %5, align 8
  br label %125

73:                                               ; preds = %62
  store i64 0, ptr %13, align 8
  %74 = load i64, ptr %8, align 8
  %75 = sub nsw i64 %74, 1
  store i64 %75, ptr %14, align 8
  br label %76

76:                                               ; preds = %103, %73
  %77 = load i64, ptr %14, align 8
  %78 = load i64, ptr %13, align 8
  %79 = add nsw i64 %77, %78
  %80 = sdiv i64 %79, 2
  store i64 %80, ptr %15, align 8
  %81 = load double, ptr %6, align 8
  %82 = load ptr, ptr %7, align 8
  %83 = load i64, ptr %15, align 8
  %84 = getelementptr inbounds double, ptr %82, i64 %83
  %85 = load double, ptr %84, align 8
  %86 = fcmp olt double %81, %85
  br i1 %86, label %87, label %95

87:                                               ; preds = %76
  %88 = load i64, ptr %15, align 8
  %89 = load i64, ptr %14, align 8
  %90 = icmp eq i64 %88, %89
  br i1 %90, label %91, label %93

91:                                               ; preds = %87
  %92 = load i64, ptr %15, align 8
  store i64 %92, ptr %5, align 8
  br label %125

93:                                               ; preds = %87
  %94 = load i64, ptr %15, align 8
  store i64 %94, ptr %14, align 8
  br label %103

95:                                               ; preds = %76
  %96 = load i64, ptr %15, align 8
  %97 = load i64, ptr %13, align 8
  %98 = icmp eq i64 %96, %97
  br i1 %98, label %99, label %101

99:                                               ; preds = %95
  %100 = load i64, ptr %15, align 8
  store i64 %100, ptr %5, align 8
  br label %125

101:                                              ; preds = %95
  %102 = load i64, ptr %15, align 8
  store i64 %102, ptr %13, align 8
  br label %103

103:                                              ; preds = %101, %93
  br label %76, !llvm.loop !6

104:                                              ; preds = %4
  store i64 0, ptr %16, align 8
  br label %105

105:                                              ; preds = %120, %104
  %106 = load i64, ptr %16, align 8
  %107 = load i64, ptr %8, align 8
  %108 = sub nsw i64 %107, 2
  %109 = icmp slt i64 %106, %108
  br i1 %109, label %110, label %123

110:                                              ; preds = %105
  %111 = load double, ptr %6, align 8
  %112 = load ptr, ptr %7, align 8
  %113 = load i64, ptr %16, align 8
  %114 = add nsw i64 %113, 1
  %115 = getelementptr inbounds double, ptr %112, i64 %114
  %116 = load double, ptr %115, align 8
  %117 = fcmp olt double %111, %116
  br i1 %117, label %118, label %119

118:                                              ; preds = %110
  br label %123

119:                                              ; preds = %110
  br label %120

120:                                              ; preds = %119
  %121 = load i64, ptr %16, align 8
  %122 = add nsw i64 %121, 1
  store i64 %122, ptr %16, align 8
  br label %105, !llvm.loop !7

123:                                              ; preds = %118, %105
  %124 = load i64, ptr %16, align 8
  store i64 %124, ptr %5, align 8
  br label %125

125:                                              ; preds = %123, %99, %91, %70, %61, %50
  %126 = load i64, ptr %5, align 8
  ret i64 %126
}

; Function Attrs: mustprogress uwtable
define linkonce_odr hidden noundef i64 @_ZNK6casadi13GenericMatrixINS_2MXEE3nnzEv(ptr noundef nonnull align 1 dereferenceable(1) %0) #4 comdat align 2 {
  %2 = alloca ptr, align 8
  store ptr %0, ptr %2, align 8
  %3 = load ptr, ptr %2, align 8
  %4 = call noundef nonnull align 8 dereferenceable(8) ptr @_ZNK6casadi13GenericMatrixINS_2MXEE8sparsityEv(ptr noundef nonnull align 1 dereferenceable(1) %3)
  %5 = call noundef i64 @_ZNK6casadi8Sparsity3nnzEv(ptr noundef nonnull align 8 dereferenceable(8) %4)
  ret i64 %5
}

; Function Attrs: mustprogress uwtable
define linkonce_odr hidden noundef nonnull align 8 dereferenceable(8) ptr @_ZNK6casadi6MXNode3depEx(ptr noundef nonnull align 8 dereferenceable(64) %0, i64 noundef %1) #4 comdat align 2 {
  %3 = alloca ptr, align 8
  %4 = alloca i64, align 8
  store ptr %0, ptr %3, align 8
  store i64 %1, ptr %4, align 8
  %5 = load ptr, ptr %3, align 8
  %6 = getelementptr inbounds %"class.casadi::MXNode", ptr %5, i32 0, i32 2
  %7 = load i64, ptr %4, align 8
  %8 = call noundef nonnull align 8 dereferenceable(8) ptr @_ZNKSt6vectorIN6casadi2MXESaIS1_EE2atEm(ptr noundef nonnull align 8 dereferenceable(24) %6, i64 noundef %7)
  ret ptr %8
}

; Function Attrs: mustprogress uwtable
define noundef i32 @_ZNK6casadi3Low4evalEPPKdPPdPxS4_(ptr noundef nonnull align 8 dereferenceable(72) %0, ptr noundef %1, ptr noundef %2, ptr noundef %3, ptr noundef %4) unnamed_addr #4 align 2 {
  %6 = alloca ptr, align 8
  %7 = alloca ptr, align 8
  %8 = alloca ptr, align 8
  %9 = alloca ptr, align 8
  %10 = alloca ptr, align 8
  %11 = alloca i64, align 8
  store ptr %0, ptr %6, align 8
  store ptr %1, ptr %7, align 8
  store ptr %2, ptr %8, align 8
  store ptr %3, ptr %9, align 8
  store ptr %4, ptr %10, align 8
  %12 = load ptr, ptr %6, align 8
  store i64 0, ptr %11, align 8
  br label %13

13:                                               ; preds = %39, %5
  %14 = load i64, ptr %11, align 8
  %15 = call noundef nonnull align 8 dereferenceable(8) ptr @_ZNK6casadi6MXNode3depEx(ptr noundef nonnull align 8 dereferenceable(64) %12, i64 noundef 1)
  %16 = call noundef i64 @_ZNK6casadi13GenericMatrixINS_2MXEE3nnzEv(ptr noundef nonnull align 1 dereferenceable(1) %15)
  %17 = icmp slt i64 %14, %16
  br i1 %17, label %18, label %42

18:                                               ; preds = %13
  %19 = load ptr, ptr %7, align 8
  %20 = getelementptr inbounds ptr, ptr %19, i64 1
  %21 = load ptr, ptr %20, align 8
  %22 = load i64, ptr %11, align 8
  %23 = getelementptr inbounds double, ptr %21, i64 %22
  %24 = load double, ptr %23, align 8
  %25 = load ptr, ptr %7, align 8
  %26 = getelementptr inbounds ptr, ptr %25, i64 0
  %27 = load ptr, ptr %26, align 8
  %28 = call noundef nonnull align 8 dereferenceable(8) ptr @_ZNK6casadi6MXNode3depEx(ptr noundef nonnull align 8 dereferenceable(64) %12, i64 noundef 0)
  %29 = call noundef i64 @_ZNK6casadi13GenericMatrixINS_2MXEE3nnzEv(ptr noundef nonnull align 1 dereferenceable(1) %28)
  %30 = getelementptr inbounds %"class.casadi::Low", ptr %12, i32 0, i32 1
  %31 = load i64, ptr %30, align 8
  %32 = call noundef i64 @_ZN6casadi10casadi_lowIdEExT_PKS1_xx(double noundef %24, ptr noundef %27, i64 noundef %29, i64 noundef %31)
  %33 = sitofp i64 %32 to double
  %34 = load ptr, ptr %8, align 8
  %35 = getelementptr inbounds ptr, ptr %34, i64 0
  %36 = load ptr, ptr %35, align 8
  %37 = load i64, ptr %11, align 8
  %38 = getelementptr inbounds double, ptr %36, i64 %37
  store double %33, ptr %38, align 8
  br label %39

39:                                               ; preds = %18
  %40 = load i64, ptr %11, align 8
  %41 = add nsw i64 %40, 1
  store i64 %41, ptr %11, align 8
  br label %13, !llvm.loop !4

42:                                               ; preds = %13
  ret i32 0
}