; Function Attrs: mustprogress uwtable
define noundef i32 @_ZNK6casadi3Low4evalEPPKdPPdPxS4_(ptr nocapture noundef nonnull readonly align 8 dereferenceable(72) %0, ptr nocapture noundef readonly %1, ptr nocapture noundef readonly %2, ptr nocapture readnone %3, ptr nocapture readnone %4) unnamed_addr #3 align 2 {
  %6 = getelementptr inbounds i8, ptr %0, i64 32
  %7 = getelementptr inbounds i8, ptr %0, i64 40
  %8 = load ptr, ptr %7, align 8
  %9 = load ptr, ptr %6, align 8
  %10 = ptrtoint ptr %8 to i64
  %11 = ptrtoint ptr %9 to i64
  %12 = sub i64 %10, %11
  %13 = ashr exact i64 %12, 3
  %.not.i.i.i13 = icmp ugt i64 %13, 1
  br i1 %.not.i.i.i13, label %_ZNK6casadi6MXNode3depEx.exit.lr.ph, label %._crit_edge

_ZNK6casadi6MXNode3depEx.exit.lr.ph:              ; preds = %5
  %14 = getelementptr inbounds i8, ptr %1, i64 8
  %15 = getelementptr inbounds i8, ptr %0, i64 64
  br label %_ZNK6casadi6MXNode3depEx.exit

._crit_edge:                                      ; preds = %_ZN6casadi10casadi_lowIdEExT_PKS1_xx.exit, %5
  %.lcssa = phi i64 [ %13, %5 ], [ %82, %_ZN6casadi10casadi_lowIdEExT_PKS1_xx.exit ]
  tail call void (ptr, ...) @_ZSt24__throw_out_of_range_fmtPKcz(ptr noundef nonnull @.str.39, i64 noundef 1, i64 noundef %.lcssa) #16
  unreachable

_ZNK6casadi6MXNode3depEx.exit:                    ; preds = %_ZNK6casadi6MXNode3depEx.exit.lr.ph, %_ZN6casadi10casadi_lowIdEExT_PKS1_xx.exit
  %16 = phi ptr [ %9, %_ZNK6casadi6MXNode3depEx.exit.lr.ph ], [ %78, %_ZN6casadi10casadi_lowIdEExT_PKS1_xx.exit ]
  %.014 = phi i64 [ 0, %_ZNK6casadi6MXNode3depEx.exit.lr.ph ], [ %76, %_ZN6casadi10casadi_lowIdEExT_PKS1_xx.exit ]
  %17 = getelementptr inbounds i8, ptr %16, i64 8
  %18 = tail call noundef nonnull align 8 dereferenceable(8) ptr @_ZNK6casadi2MX8sparsityEv(ptr noundef nonnull align 8 dereferenceable(8) %17)
  %19 = tail call noundef i64 @_ZNK6casadi8Sparsity3nnzEv(ptr noundef nonnull align 8 dereferenceable(8) %18)
  %20 = icmp slt i64 %.014, %19
  br i1 %20, label %21, label %83

21:                                               ; preds = %_ZNK6casadi6MXNode3depEx.exit
  %22 = load ptr, ptr %14, align 8
  %23 = getelementptr inbounds double, ptr %22, i64 %.014
  %24 = load double, ptr %23, align 8
  %25 = load ptr, ptr %1, align 8
  %26 = load ptr, ptr %7, align 8
  %27 = load ptr, ptr %6, align 8
  %.not.i.i.i7.not = icmp eq ptr %26, %27
  br i1 %.not.i.i.i7.not, label %28, label %_ZNK6casadi6MXNode3depEx.exit8

28:                                               ; preds = %21
  tail call void (ptr, ...) @_ZSt24__throw_out_of_range_fmtPKcz(ptr noundef nonnull @.str.39, i64 noundef 0, i64 noundef 0) #16
  unreachable

_ZNK6casadi6MXNode3depEx.exit8:                   ; preds = %21
  %29 = tail call noundef nonnull align 8 dereferenceable(8) ptr @_ZNK6casadi2MX8sparsityEv(ptr noundef nonnull align 8 dereferenceable(8) %27)
  %30 = tail call noundef i64 @_ZNK6casadi8Sparsity3nnzEv(ptr noundef nonnull align 8 dereferenceable(8) %29)
  %31 = load i64, ptr %15, align 8
  switch i64 %31, label %.preheader.i [
    i64 1, label %33
    i64 2, label %45
  ]

.preheader.i:                                     ; preds = %_ZNK6casadi6MXNode3depEx.exit8
  %32 = tail call i64 @llvm.smax.i64(i64 %30, i64 2)
  %smax.i = add nsw i64 %32, -2
  br label %67

33:                                               ; preds = %_ZNK6casadi6MXNode3depEx.exit8
  %34 = load double, ptr %25, align 8
  %35 = add nsw i64 %30, -1
  %36 = getelementptr inbounds double, ptr %25, i64 %35
  %37 = load double, ptr %36, align 8
  %38 = fsub double %37, %34
  %39 = fsub double %24, %34
  %40 = sitofp i64 %35 to double
  %41 = fmul double %39, %40
  %42 = fdiv double %41, %38
  %43 = fptosi double %42 to i64
  %spec.store.select.i = tail call i64 @llvm.smax.i64(i64 %43, i64 0)
  %44 = add nsw i64 %30, -2
  %spec.select.i = tail call i64 @llvm.smin.i64(i64 %spec.store.select.i, i64 %44)
  br label %_ZN6casadi10casadi_lowIdEExT_PKS1_xx.exit

45:                                               ; preds = %_ZNK6casadi6MXNode3depEx.exit8
  %46 = icmp slt i64 %30, 2
  br i1 %46, label %_ZN6casadi10casadi_lowIdEExT_PKS1_xx.exit, label %47

47:                                               ; preds = %45
  %48 = getelementptr inbounds i8, ptr %25, i64 8
  %49 = load double, ptr %48, align 8
  %50 = fcmp ogt double %49, %24
  br i1 %50, label %_ZN6casadi10casadi_lowIdEExT_PKS1_xx.exit, label %51

51:                                               ; preds = %47
  %52 = add nsw i64 %30, -1
  %53 = getelementptr inbounds double, ptr %25, i64 %52
  %54 = load double, ptr %53, align 8
  %55 = fcmp olt double %54, %24
  br i1 %55, label %56, label %.preheader52.i.outer

56:                                               ; preds = %51
  %57 = add nsw i64 %30, -2
  br label %_ZN6casadi10casadi_lowIdEExT_PKS1_xx.exit

.preheader52.i:                                   ; preds = %.preheader52.i.outer, %63
  %.043.i = phi i64 [ %59, %63 ], [ %.043.i.ph, %.preheader52.i.outer ]
  %58 = add nuw nsw i64 %.043.i, %.044.i.ph
  %59 = lshr i64 %58, 1
  %60 = getelementptr inbounds double, ptr %25, i64 %59
  %61 = load double, ptr %60, align 8
  %62 = fcmp ogt double %61, %24
  br i1 %62, label %63, label %65

63:                                               ; preds = %.preheader52.i
  %64 = icmp eq i64 %59, %.043.i
  br i1 %64, label %_ZN6casadi10casadi_lowIdEExT_PKS1_xx.exit, label %.preheader52.i, !llvm.loop !22

65:                                               ; preds = %.preheader52.i
  %66 = icmp eq i64 %59, %.044.i.ph
  br i1 %66, label %_ZN6casadi10casadi_lowIdEExT_PKS1_xx.exit, label %.preheader52.i.outer, !llvm.loop !22

.preheader52.i.outer:                             ; preds = %51, %65
  %.044.i.ph = phi i64 [ %59, %65 ], [ 0, %51 ]
  %.043.i.ph = phi i64 [ %.043.i, %65 ], [ %52, %51 ]
  br label %.preheader52.i

67:                                               ; preds = %68, %.preheader.i
  %.0.i = phi i64 [ %69, %68 ], [ 0, %.preheader.i ]
  %exitcond.not.i = icmp eq i64 %.0.i, %smax.i
  br i1 %exitcond.not.i, label %_ZN6casadi10casadi_lowIdEExT_PKS1_xx.exit, label %68

68:                                               ; preds = %67
  %69 = add nuw nsw i64 %.0.i, 1
  %70 = getelementptr inbounds double, ptr %25, i64 %69
  %71 = load double, ptr %70, align 8
  %72 = fcmp ogt double %71, %24
  br i1 %72, label %_ZN6casadi10casadi_lowIdEExT_PKS1_xx.exit, label %67, !llvm.loop !23

_ZN6casadi10casadi_lowIdEExT_PKS1_xx.exit:        ; preds = %63, %65, %67, %68, %33, %45, %47, %56
  %.042.i = phi i64 [ %57, %56 ], [ %spec.select.i, %33 ], [ 0, %47 ], [ 0, %45 ], [ %.0.i, %68 ], [ %smax.i, %67 ], [ %.043.i, %63 ], [ %.044.i.ph, %65 ]
  %73 = sitofp i64 %.042.i to double
  %74 = load ptr, ptr %2, align 8
  %75 = getelementptr inbounds double, ptr %74, i64 %.014
  store double %73, ptr %75, align 8
  %76 = add nuw nsw i64 %.014, 1
  %77 = load ptr, ptr %7, align 8
  %78 = load ptr, ptr %6, align 8
  %79 = ptrtoint ptr %77 to i64
  %80 = ptrtoint ptr %78 to i64
  %81 = sub i64 %79, %80
  %82 = ashr exact i64 %81, 3
  %.not.i.i.i = icmp ugt i64 %82, 1
  br i1 %.not.i.i.i, label %_ZNK6casadi6MXNode3depEx.exit, label %._crit_edge, !llvm.loop !24

83:                                               ; preds = %_ZNK6casadi6MXNode3depEx.exit
  ret i32 0
}